; Function Attrs: mustprogress uwtable
define hidden noundef zeroext i1 @_ZN7nanogui8CheckBox18mouse_button_eventERKNS_5ArrayIiLm2EEEibi(ptr noundef nonnull align 8 dereferenceable(216) %0, ptr noundef nonnull align 4 dereferenceable(8) %1, i32 noundef %2, i1 noundef zeroext %3, i32 noundef %4) unnamed_addr #0 align 2 personality ptr @__gxx_personality_v0 {
  %6 = alloca i8, align 1
  %7 = tail call noundef zeroext i1 @_ZN7nanogui6Widget18mouse_button_eventERKNS_5ArrayIiLm2EEEibi(ptr noundef nonnull align 8 dereferenceable(140) %0, ptr noundef nonnull align 4 dereferenceable(8) %1, i32 noundef %2, i1 noundef zeroext %3, i32 noundef %4)
  %8 = getelementptr inbounds i8, ptr %0, i64 89
  %9 = load i8, ptr %8, align 1
  %10 = and i8 %9, 1
  %.not = icmp ne i8 %10, 0
  %11 = icmp eq i32 %2, 0
  %or.cond = and i1 %11, %.not
  br i1 %or.cond, label %12, label %41

12:                                               ; preds = %5
  %13 = getelementptr inbounds i8, ptr %0, i64 176
  br i1 %3, label %.sink.split, label %14

14:                                               ; preds = %12
  %15 = load i8, ptr %13, align 8
  %16 = and i8 %15, 1
  %.not8 = icmp eq i8 %16, 0
  br i1 %.not8, label %41, label %17

17:                                               ; preds = %14
  %18 = getelementptr inbounds i8, ptr %0, i64 40
  %19 = load <2 x i32>, ptr %1, align 4
  %20 = load <2 x i32>, ptr %18, align 8
  %21 = sub nsw <2 x i32> %19, %20
  %22 = extractelement <2 x i32> %21, i64 0
  %23 = extractelement <2 x i32> %21, i64 1
  %24 = or i32 %23, %22
  %or.cond.i = icmp sgt i32 %24, -1
  %25 = getelementptr inbounds i8, ptr %0, i64 48
  %26 = load i32, ptr %25, align 8
  %27 = icmp slt i32 %22, %26
  %or.cond8.i = select i1 %or.cond.i, i1 %27, i1 false
  %28 = getelementptr inbounds i8, ptr %0, i64 52
  %29 = load i32, ptr %28, align 4
  %30 = icmp slt i32 %23, %29
  %or.cond13 = select i1 %or.cond8.i, i1 %30, i1 false
  br i1 %or.cond13, label %31, label %.sink.split

31:                                               ; preds = %17
  %32 = getelementptr inbounds i8, ptr %0, i64 177
  %33 = load i8, ptr %32, align 1
  %34 = and i8 %33, 1
  %35 = xor i8 %34, 1
  store i8 %35, ptr %32, align 1
  %36 = getelementptr inbounds i8, ptr %0, i64 200
  %37 = load ptr, ptr %36, align 8
  %.not.i.i.not = icmp eq ptr %37, null
  br i1 %.not.i.i.not, label %.sink.split, label %_ZNKSt8functionIFvbEEclEb.exit

_ZNKSt8functionIFvbEEclEb.exit:                   ; preds = %31
  %38 = getelementptr inbounds i8, ptr %0, i64 184
  call void @llvm.lifetime.start.p0(i64 1, ptr nonnull %6)
  store i8 %35, ptr %6, align 1
  %39 = getelementptr inbounds i8, ptr %0, i64 208
  %40 = load ptr, ptr %39, align 8
  call void %40(ptr noundef nonnull align 8 dereferenceable(16) %38, ptr noundef nonnull align 1 dereferenceable(1) %6)
  call void @llvm.lifetime.end.p0(i64 1, ptr nonnull %6)
  br label %.sink.split

.sink.split:                                      ; preds = %_ZNKSt8functionIFvbEEclEb.exit, %31, %17, %12
  %.sink = phi i8 [ 1, %12 ], [ 0, %17 ], [ 0, %31 ], [ 0, %_ZNKSt8functionIFvbEEclEb.exit ]
  store i8 %.sink, ptr %13, align 8
  br label %41

41:                                               ; preds = %.sink.split, %14, %5
  ret i1 %or.cond
}